; ModuleID = '57/714.c'
source_filename = "57/714.c"
target datalayout = "e-m:e-p270:32:32-p271:32:32-p272:64:64-i64:64-f80:128-n8:16:32:64-S128"
target triple = "x86_64-pc-linux-gnu"

@.str = private unnamed_addr constant [3 x i8] c"%d\00", align 1
@.str.1 = private unnamed_addr constant [3 x i8] c"%s\00", align 1
@.str.2 = private unnamed_addr constant [3 x i8] c"%c\00", align 1
@.str.3 = private unnamed_addr constant [2 x i8] c"\0A\00", align 1

; Function Attrs: noinline nounwind uwtable
define dso_local i32 @main() #0 {
  %1 = alloca i32, align 4
  %2 = alloca i32, align 4
  %3 = alloca i32, align 4
  %4 = alloca i32, align 4
  %5 = alloca i32, align 4
  %6 = alloca i32, align 4
  %7 = alloca [50 x i8], align 16
  store i32 0, i32* %1, align 4
  %8 = call i32 (i8*, ...) @__isoc99_scanf(i8* getelementptr inbounds ([3 x i8], [3 x i8]* @.str, i64 0, i64 0), i32* %6)
  store i32 1, i32* %2, align 4
  br label %9

9:                                                ; preds = %91, %0
  %10 = load i32, i32* %2, align 4
  %11 = load i32, i32* %6, align 4
  %12 = icmp sle i32 %10, %11
  br i1 %12, label %13, label %94

13:                                               ; preds = %9
  %14 = getelementptr inbounds [50 x i8], [50 x i8]* %7, i64 0, i64 0
  %15 = call i32 (i8*, ...) @__isoc99_scanf(i8* getelementptr inbounds ([3 x i8], [3 x i8]* @.str.1, i64 0, i64 0), i8* %14)
  %16 = getelementptr inbounds [50 x i8], [50 x i8]* %7, i64 0, i64 0
  %17 = call i64 @strlen(i8* %16) #3
  %18 = trunc i64 %17 to i32
  store i32 %18, i32* %5, align 4
  %19 = load i32, i32* %5, align 4
  %20 = sub nsw i32 %19, 1
  %21 = sext i32 %20 to i64
  %22 = getelementptr inbounds [50 x i8], [50 x i8]* %7, i64 0, i64 %21
  %23 = load i8, i8* %22, align 1
  %24 = sext i8 %23 to i32
  %25 = icmp eq i32 %24, 103
  br i1 %25, label %26, label %66

26:                                               ; preds = %13
  %27 = load i32, i32* %5, align 4
  %28 = sub nsw i32 %27, 2
  %29 = sext i32 %28 to i64
  %30 = getelementptr inbounds [50 x i8], [50 x i8]* %7, i64 0, i64 %29
  %31 = load i8, i8* %30, align 1
  %32 = sext i8 %31 to i32
  %33 = icmp eq i32 %32, 110
  br i1 %33, label %34, label %66

34:                                               ; preds = %26
  %35 = load i32, i32* %5, align 4
  %36 = sub nsw i32 %35, 3
  %37 = sext i32 %36 to i64
  %38 = getelementptr inbounds [50 x i8], [50 x i8]* %7, i64 0, i64 %37
  %39 = load i8, i8* %38, align 1
  %40 = sext i8 %39 to i32
  %41 = icmp eq i32 %40, 105
  br i1 %41, label %42, label %66

42:                                               ; preds = %34
  store i32 0, i32* %3, align 4
  br label %43

43:                                               ; preds = %62, %42
  %44 = load i32, i32* %3, align 4
  %45 = load i32, i32* %5, align 4
  %46 = sub nsw i32 %45, 3
  %47 = icmp slt i32 %44, %46
  br i1 %47, label %48, label %65

48:                                               ; preds = %43
  %49 = load i32, i32* %3, align 4
  %50 = sext i32 %49 to i64
  %51 = getelementptr inbounds [50 x i8], [50 x i8]* %7, i64 0, i64 %50
  %52 = load i8, i8* %51, align 1
  %53 = sext i8 %52 to i32
  %54 = call i32 (i8*, ...) @printf(i8* getelementptr inbounds ([3 x i8], [3 x i8]* @.str.2, i64 0, i64 0), i32 %53)
  %55 = load i32, i32* %3, align 4
  %56 = load i32, i32* %5, align 4
  %57 = sub nsw i32 %56, 4
  %58 = icmp eq i32 %55, %57
  br i1 %58, label %59, label %61

59:                                               ; preds = %48
  %60 = call i32 (i8*, ...) @printf(i8* getelementptr inbounds ([2 x i8], [2 x i8]* @.str.3, i64 0, i64 0))
  br label %61

61:                                               ; preds = %59, %48
  br label %62

62:                                               ; preds = %61
  %63 = load i32, i32* %3, align 4
  %64 = add nsw i32 %63, 1
  store i32 %64, i32* %3, align 4
  br label %43

65:                                               ; preds = %43
  br label %90

66:                                               ; preds = %34, %26, %13
  store i32 0, i32* %3, align 4
  br label %67

67:                                               ; preds = %86, %66
  %68 = load i32, i32* %3, align 4
  %69 = load i32, i32* %5, align 4
  %70 = sub nsw i32 %69, 2
  %71 = icmp slt i32 %68, %70
  br i1 %71, label %72, label %89

72:                                               ; preds = %67
  %73 = load i32, i32* %3, align 4
  %74 = sext i32 %73 to i64
  %75 = getelementptr inbounds [50 x i8], [50 x i8]* %7, i64 0, i64 %74
  %76 = load i8, i8* %75, align 1
  %77 = sext i8 %76 to i32
  %78 = call i32 (i8*, ...) @printf(i8* getelementptr inbounds ([3 x i8], [3 x i8]* @.str.2, i64 0, i64 0), i32 %77)
  %79 = load i32, i32* %3, align 4
  %80 = load i32, i32* %5, align 4
  %81 = sub nsw i32 %80, 3
  %82 = icmp eq i32 %79, %81
  br i1 %82, label %83, label %85

83:                                               ; preds = %72
  %84 = call i32 (i8*, ...) @printf(i8* getelementptr inbounds ([2 x i8], [2 x i8]* @.str.3, i64 0, i64 0))
  br label %85

85:                                               ; preds = %83, %72
  br label %86

86:                                               ; preds = %85
  %87 = load i32, i32* %3, align 4
  %88 = add nsw i32 %87, 1
  store i32 %88, i32* %3, align 4
  br label %67

89:                                               ; preds = %67
  br label %90

90:                                               ; preds = %89, %65
  br label %91

91:                                               ; preds = %90
  %92 = load i32, i32* %2, align 4
  %93 = add nsw i32 %92, 1
  store i32 %93, i32* %2, align 4
  br label %9

94:                                               ; preds = %9
  %95 = load i32, i32* %1, align 4
  ret i32 %95
}

declare dso_local i32 @__isoc99_scanf(i8*, ...) #1

; Function Attrs: nounwind readonly
declare dso_local i64 @strlen(i8*) #2

declare dso_local i32 @printf(i8*, ...) #1


!llvm.module.flags = !{!0}
!llvm.ident = !{!1}

!0 = !{i32 1, !"wchar_size", i32 4}
!1 = !{!"clang version 10.0.0-4ubuntu1 "}
