; ModuleID = 'source-C-CXX/56/714.c'
source_filename = "source-C-CXX/56/714.c"
target datalayout = "e-m:e-p270:32:32-p271:32:32-p272:64:64-i64:64-f80:128-n8:16:32:64-S128"
target triple = "x86_64-pc-linux-gnu"

@.str = private unnamed_addr constant [3 x i8] c"%d\00", align 1
@.str.1 = private unnamed_addr constant [3 x i8] c"%s\00", align 1

; Function Attrs: nofree nounwind sspstrong uwtable
define dso_local i32 @main() local_unnamed_addr #0 {
  %1 = alloca i32, align 4
  %2 = alloca [50 x i8], align 16
  %3 = bitcast i32* %1 to i8*
  call void @llvm.lifetime.start.p0i8(i64 4, i8* nonnull %3) #5
  %4 = getelementptr inbounds [50 x i8], [50 x i8]* %2, i64 0, i64 0
  call void @llvm.lifetime.start.p0i8(i64 50, i8* nonnull %4) #5
  %5 = call i32 (i8*, ...) @__isoc99_scanf(i8* getelementptr inbounds ([3 x i8], [3 x i8]* @.str, i64 0, i64 0), i32* nonnull %1)
  %6 = load i32, i32* %1, align 4, !tbaa !5
  %7 = icmp slt i32 %6, 1
  br i1 %7, label %72, label %8

8:                                                ; preds = %0, %68
  %9 = phi i32 [ %69, %68 ], [ 1, %0 ]
  %10 = call i32 (i8*, ...) @__isoc99_scanf(i8* getelementptr inbounds ([3 x i8], [3 x i8]* @.str.1, i64 0, i64 0), i8* nonnull %4)
  %11 = call i64 @strlen(i8* noundef nonnull %4) #6
  %12 = trunc i64 %11 to i32
  %13 = shl i64 %11, 32
  %14 = add i64 %13, -4294967296
  %15 = ashr exact i64 %14, 32
  %16 = getelementptr inbounds [50 x i8], [50 x i8]* %2, i64 0, i64 %15
  %17 = load i8, i8* %16, align 1, !tbaa !9
  %18 = icmp eq i8 %17, 103
  br i1 %18, label %19, label %49

19:                                               ; preds = %8
  %20 = add i64 %13, -8589934592
  %21 = ashr exact i64 %20, 32
  %22 = getelementptr inbounds [50 x i8], [50 x i8]* %2, i64 0, i64 %21
  %23 = load i8, i8* %22, align 1, !tbaa !9
  %24 = icmp eq i8 %23, 110
  br i1 %24, label %25, label %49

25:                                               ; preds = %19
  %26 = add i32 %12, -3
  %27 = sext i32 %26 to i64
  %28 = getelementptr inbounds [50 x i8], [50 x i8]* %2, i64 0, i64 %27
  %29 = load i8, i8* %28, align 1, !tbaa !9
  %30 = icmp eq i8 %29, 105
  br i1 %30, label %31, label %49

31:                                               ; preds = %25
  %32 = icmp sgt i32 %12, 3
  br i1 %32, label %33, label %68

33:                                               ; preds = %31
  %34 = add i64 %11, 4294967292
  %35 = and i64 %34, 4294967295
  %36 = zext i32 %26 to i64
  br label %37

37:                                               ; preds = %33, %46
  %38 = phi i64 [ 0, %33 ], [ %47, %46 ]
  %39 = getelementptr inbounds [50 x i8], [50 x i8]* %2, i64 0, i64 %38
  %40 = load i8, i8* %39, align 1, !tbaa !9
  %41 = sext i8 %40 to i32
  %42 = call i32 @putchar(i32 %41)
  %43 = icmp eq i64 %38, %35
  br i1 %43, label %44, label %46

44:                                               ; preds = %37
  %45 = call i32 @putchar(i32 10)
  br label %46

46:                                               ; preds = %37, %44
  %47 = add nuw nsw i64 %38, 1
  %48 = icmp eq i64 %47, %36
  br i1 %48, label %68, label %37, !llvm.loop !10

49:                                               ; preds = %25, %19, %8
  %50 = icmp sgt i32 %12, 2
  br i1 %50, label %51, label %68

51:                                               ; preds = %49
  %52 = add i64 %11, 4294967293
  %53 = and i64 %52, 4294967295
  %54 = add i64 %11, 4294967294
  %55 = and i64 %54, 4294967295
  br label %56

56:                                               ; preds = %51, %65
  %57 = phi i64 [ 0, %51 ], [ %66, %65 ]
  %58 = getelementptr inbounds [50 x i8], [50 x i8]* %2, i64 0, i64 %57
  %59 = load i8, i8* %58, align 1, !tbaa !9
  %60 = sext i8 %59 to i32
  %61 = call i32 @putchar(i32 %60)
  %62 = icmp eq i64 %57, %53
  br i1 %62, label %63, label %65

63:                                               ; preds = %56
  %64 = call i32 @putchar(i32 10)
  br label %65

65:                                               ; preds = %56, %63
  %66 = add nuw nsw i64 %57, 1
  %67 = icmp eq i64 %66, %55
  br i1 %67, label %68, label %56, !llvm.loop !12

68:                                               ; preds = %65, %46, %49, %31
  %69 = add nuw nsw i32 %9, 1
  %70 = load i32, i32* %1, align 4, !tbaa !5
  %71 = icmp slt i32 %9, %70
  br i1 %71, label %8, label %72, !llvm.loop !13

72:                                               ; preds = %68, %0
  call void @llvm.lifetime.end.p0i8(i64 50, i8* nonnull %4) #5
  call void @llvm.lifetime.end.p0i8(i64 4, i8* nonnull %3) #5
  ret i32 0
}

; Function Attrs: argmemonly mustprogress nofree nosync nounwind willreturn
declare void @llvm.lifetime.start.p0i8(i64 immarg, i8* nocapture) #1

; Function Attrs: nofree nounwind
declare noundef i32 @__isoc99_scanf(i8* nocapture noundef readonly, ...) local_unnamed_addr #2

; Function Attrs: argmemonly mustprogress nofree nounwind readonly willreturn
declare i64 @strlen(i8* nocapture) local_unnamed_addr #3

; Function Attrs: argmemonly mustprogress nofree nosync nounwind willreturn
declare void @llvm.lifetime.end.p0i8(i64 immarg, i8* nocapture) #1

; Function Attrs: nofree nounwind
declare noundef i32 @putchar(i32 noundef) local_unnamed_addr #4


!llvm.module.flags = !{!0, !1, !2, !3}
!llvm.ident = !{!4}

!0 = !{i32 1, !"wchar_size", i32 4}
!1 = !{i32 7, !"PIC Level", i32 2}
!2 = !{i32 7, !"PIE Level", i32 2}
!3 = !{i32 7, !"uwtable", i32 1}
!4 = !{!"clang version 13.0.0"}
!5 = !{!6, !6, i64 0}
!6 = !{!"int", !7, i64 0}
!7 = !{!"omnipotent char", !8, i64 0}
!8 = !{!"Simple C/C++ TBAA"}
!9 = !{!7, !7, i64 0}
!10 = distinct !{!10, !11}
!11 = !{!"llvm.loop.mustprogress"}
!12 = distinct !{!12, !11}
!13 = distinct !{!13, !11}
